; Function Attrs: nounwind uwtable
define void @Abc_NtkPermutePiUsingFanout(ptr noundef readonly captures(none) %0) local_unnamed_addr #0 {
  %2 = getelementptr inbounds nuw i8, ptr %0, i64 40
  %3 = load ptr, ptr %2, align 8, !tbaa !31
  %4 = getelementptr i8, ptr %3, i64 8
  %.val11 = load ptr, ptr %4, align 8, !tbaa !28
  %5 = getelementptr i8, ptr %3, i64 4
  %.val9 = load i32, ptr %5, align 4, !tbaa !25
  %6 = sext i32 %.val9 to i64
  tail call void @qsort(ptr noundef %.val11, i64 noundef %6, i64 noundef 8, ptr noundef nonnull @Abc_NodeCompareByFanoutCount) #20
  %7 = getelementptr inbounds nuw i8, ptr %0, i64 56
  %8 = load ptr, ptr %7, align 8, !tbaa !33
  %9 = getelementptr inbounds nuw i8, ptr %8, i64 4
  store i32 0, ptr %9, align 4, !tbaa !25
  %10 = load ptr, ptr %2, align 8, !tbaa !31
  %11 = getelementptr i8, ptr %10, i64 4
  %.val12 = load i32, ptr %11, align 4, !tbaa !25
  %12 = icmp sgt i32 %.val12, 0
  br i1 %12, label %.lr.ph, label %.critedge

.lr.ph:                                           ; preds = %1, %Vec_PtrPush.exit
  %indvars.iv = phi i64 [ %indvars.iv.next, %Vec_PtrPush.exit ], [ 0, %1 ]
  %13 = phi ptr [ %49, %Vec_PtrPush.exit ], [ %10, %1 ]
  %14 = getelementptr i8, ptr %13, i64 8
  %.val10 = load ptr, ptr %14, align 8, !tbaa !28
  %15 = getelementptr inbounds nuw ptr, ptr %.val10, i64 %indvars.iv
  %16 = load ptr, ptr %15, align 8, !tbaa !40
  %17 = load ptr, ptr %7, align 8, !tbaa !33
  %18 = getelementptr inbounds nuw i8, ptr %17, i64 4
  %19 = load i32, ptr %18, align 4, !tbaa !25
  %20 = load i32, ptr %17, align 8, !tbaa !27
  %21 = icmp eq i32 %19, %20
  br i1 %21, label %22, label %.Vec_PtrGrow.exit11_crit_edge.i

.Vec_PtrGrow.exit11_crit_edge.i:                  ; preds = %.lr.ph
  %.phi.trans.insert.i = getelementptr inbounds nuw i8, ptr %17, i64 8
  %.pre.i = load ptr, ptr %.phi.trans.insert.i, align 8, !tbaa !28
  br label %Vec_PtrPush.exit

22:                                               ; preds = %.lr.ph
  %23 = icmp slt i32 %19, 16
  br i1 %23, label %24, label %32

24:                                               ; preds = %22
  %25 = getelementptr inbounds nuw i8, ptr %17, i64 8
  %26 = load ptr, ptr %25, align 8, !tbaa !28
  %.not9.i.i = icmp eq ptr %26, null
  br i1 %.not9.i.i, label %29, label %27

27:                                               ; preds = %24
  %28 = tail call dereferenceable_or_null(128) ptr @realloc(ptr noundef nonnull %26, i64 noundef 128) #21
  br label %Vec_PtrGrow.exit.i

29:                                               ; preds = %24
  %30 = tail call noalias dereferenceable_or_null(128) ptr @malloc(i64 noundef 128) #19
  br label %Vec_PtrGrow.exit.i

Vec_PtrGrow.exit.i:                               ; preds = %29, %27
  %31 = phi ptr [ %28, %27 ], [ %30, %29 ]
  store ptr %31, ptr %25, align 8, !tbaa !28
  store i32 16, ptr %17, align 8, !tbaa !27
  br label %Vec_PtrPush.exit

32:                                               ; preds = %22
  %33 = shl nuw nsw i32 %19, 1
  %34 = getelementptr inbounds nuw i8, ptr %17, i64 8
  %35 = load ptr, ptr %34, align 8, !tbaa !28
  %.not9.i10.i = icmp eq ptr %35, null
  %36 = zext nneg i32 %33 to i64
  %37 = shl nuw nsw i64 %36, 3
  br i1 %.not9.i10.i, label %40, label %38

38:                                               ; preds = %32
  %39 = tail call ptr @realloc(ptr noundef nonnull %35, i64 noundef %37) #21
  br label %42

40:                                               ; preds = %32
  %41 = tail call noalias ptr @malloc(i64 noundef %37) #19
  br label %42

42:                                               ; preds = %40, %38
  %43 = phi ptr [ %39, %38 ], [ %41, %40 ]
  store ptr %43, ptr %34, align 8, !tbaa !28
  store i32 %33, ptr %17, align 8, !tbaa !27
  br label %Vec_PtrPush.exit

Vec_PtrPush.exit:                                 ; preds = %.Vec_PtrGrow.exit11_crit_edge.i, %Vec_PtrGrow.exit.i, %42
  %44 = phi ptr [ %.pre.i, %.Vec_PtrGrow.exit11_crit_edge.i ], [ %43, %42 ], [ %31, %Vec_PtrGrow.exit.i ]
  %45 = load i32, ptr %18, align 4, !tbaa !25
  %46 = add nsw i32 %45, 1
  store i32 %46, ptr %18, align 4, !tbaa !25
  %47 = sext i32 %45 to i64
  %48 = getelementptr inbounds ptr, ptr %44, i64 %47
  store ptr %16, ptr %48, align 8, !tbaa !40
  %indvars.iv.next = add nuw nsw i64 %indvars.iv, 1
  %49 = load ptr, ptr %2, align 8, !tbaa !31
  %50 = getelementptr i8, ptr %49, i64 4
  %.val = load i32, ptr %50, align 4, !tbaa !25
  %51 = sext i32 %.val to i64
  %52 = icmp slt i64 %indvars.iv.next, %51
  br i1 %52, label %.lr.ph, label %.critedge, !llvm.loop !216

.critedge:                                        ; preds = %Vec_PtrPush.exit, %1
  ret void
}